target datalayout = "e-m:e-p270:32:32-p271:32:32-p272:64:64-i64:64-i128:128-f80:128-n8:16:32:64-S128"
target triple = "x86_64-pc-linux-gnu"

%class.ThreadShadow = type <{ ptr, ptr, ptr, i32, [4 x i8] }>
%class.ExceptionMark = type { ptr }
%class.Handle = type { ptr }
%"struct.Atomic::StoreImpl" = type { i8 }
%"struct.Atomic::PlatformStore" = type { i8 }

@_ZN14AttachListener6_stateE = hidden global i32 0, align 4
@tty = external global ptr, align 8
@.str.4 = private unnamed_addr constant [42 x i8] c"Exception in VM (AttachListener::init) : \00", align 1
@.str.5 = private unnamed_addr constant [16 x i8] c"Attach Listener\00", align 1

; Function Attrs: mustprogress nounwind uwtable
define linkonce_odr hidden void @_ZNK6Atomic13PlatformStoreILm4EEclIjEEvPVT_S3_(ptr noundef nonnull align 1 dereferenceable(1) %0, ptr noundef %1, i32 noundef %2) #1 comdat align 2 {
  %4 = alloca ptr, align 8
  %5 = alloca ptr, align 8
  %6 = alloca i32, align 4
  store ptr %0, ptr %4, align 8
  store ptr %1, ptr %5, align 8
  store i32 %2, ptr %6, align 4
  %7 = load i32, ptr %6, align 4
  %8 = load ptr, ptr %5, align 8
  store volatile i32 %7, ptr %8, align 4
  ret void
}

; Function Attrs: mustprogress nounwind uwtable
define linkonce_odr hidden noundef i32 @_ZN20PrimitiveConversions9TranslateI19AttachListenerStatevE5decayES1_(i32 noundef %0) #1 comdat align 2 {
  %2 = alloca i32, align 4
  store i32 %0, ptr %2, align 4
  %3 = load i32, ptr %2, align 4
  ret i32 %3
}

; Function Attrs: mustprogress nounwind uwtable
define linkonce_odr hidden void @_ZNK6Atomic9StoreImplI19AttachListenerStateS1_NS_13PlatformStoreILm4EEEvEclEPVS1_S1_(ptr noundef nonnull align 1 dereferenceable(1) %0, ptr noundef %1, i32 noundef %2) #1 comdat align 2 {
  %4 = alloca ptr, align 8
  %5 = alloca ptr, align 8
  %6 = alloca i32, align 4
  %7 = alloca %"struct.Atomic::PlatformStore", align 1
  store ptr %0, ptr %4, align 8
  store ptr %1, ptr %5, align 8
  store i32 %2, ptr %6, align 4
  %8 = load ptr, ptr %5, align 8
  %9 = load i32, ptr %6, align 4
  %10 = call noundef i32 @_ZN20PrimitiveConversions9TranslateI19AttachListenerStatevE5decayES1_(i32 noundef %9)
  call void @_ZNK6Atomic13PlatformStoreILm4EEclIjEEvPVT_S3_(ptr noundef nonnull align 1 dereferenceable(1) %7, ptr noundef %8, i32 noundef %10)
  ret void
}

; Function Attrs: mustprogress nounwind uwtable
define linkonce_odr hidden void @_ZN6Atomic5storeI19AttachListenerStateS1_EEvPVT_T0_(ptr noundef %0, i32 noundef %1) #1 comdat align 2 {
  %3 = alloca ptr, align 8
  %4 = alloca i32, align 4
  %5 = alloca %"struct.Atomic::StoreImpl", align 1
  store ptr %0, ptr %3, align 8
  store i32 %1, ptr %4, align 4
  %6 = load ptr, ptr %3, align 8
  %7 = load i32, ptr %4, align 4
  call void @_ZNK6Atomic9StoreImplI19AttachListenerStateS1_NS_13PlatformStoreILm4EEEvEclEPVS1_S1_(ptr noundef nonnull align 1 dereferenceable(1) %5, ptr noundef %6, i32 noundef %7)
  ret void
}

; Function Attrs: mustprogress nounwind uwtable
define linkonce_odr hidden noundef ptr @_ZNK12ThreadShadow17pending_exceptionEv(ptr noundef nonnull align 8 dereferenceable(28) %0) #1 comdat align 2 {
  %2 = alloca ptr, align 8
  store ptr %0, ptr %2, align 8
  %3 = load ptr, ptr %2, align 8
  %4 = getelementptr inbounds %class.ThreadShadow, ptr %3, i32 0, i32 1
  %5 = load ptr, ptr %4, align 8
  ret ptr %5
}

; Function Attrs: mustprogress nounwind uwtable
define linkonce_odr hidden noundef zeroext i1 @_ZNK12ThreadShadow21has_pending_exceptionEv(ptr noundef nonnull align 8 dereferenceable(28) %0) #1 comdat align 2 {
  %2 = alloca ptr, align 8
  store ptr %0, ptr %2, align 8
  %3 = load ptr, ptr %2, align 8
  %4 = getelementptr inbounds %class.ThreadShadow, ptr %3, i32 0, i32 1
  %5 = load ptr, ptr %4, align 8
  %6 = icmp ne ptr %5, null
  ret i1 %6
}

; Function Attrs: mustprogress nounwind uwtable
define linkonce_odr hidden void @_ZN20AttachListenerThreadC2Ev(ptr noundef nonnull align 8 dereferenceable(1800) %0) unnamed_addr #1 comdat align 2 {
  %2 = alloca ptr, align 8
  store ptr %0, ptr %2, align 8
  %3 = load ptr, ptr %2, align 8
  call void @_ZN10JavaThreadC2EPFvPS_S0_Em8MEMFLAGS(ptr noundef nonnull align 8 dereferenceable(1800) %3, ptr noundef @_ZN20AttachListenerThread12thread_entryEP10JavaThreadS1_, i64 noundef 0, i8 noundef zeroext 2)
  store ptr getelementptr inbounds inrange(-16, 224) ({ [30 x ptr] }, ptr @_ZTV20AttachListenerThread, i32 0, i32 0, i32 2), ptr %3, align 8
  ret void
}

; Function Attrs: mustprogress nounwind uwtable
define linkonce_odr hidden void @_ZN14AttachListener9set_stateE19AttachListenerState(i32 noundef %0) #1 comdat align 2 {
  %2 = alloca i32, align 4
  store i32 %0, ptr %2, align 4
  %3 = load i32, ptr %2, align 4
  call void @_ZN6Atomic5storeI19AttachListenerStateS1_EEvPVT_T0_(ptr noundef @_ZN14AttachListener6_stateE, i32 noundef %3)
  ret void
}

; Function Attrs: mustprogress nounwind uwtable
define hidden noundef zeroext i1 @_ZN14AttachListener14has_init_errorEP10JavaThread(ptr noundef %0) #1 align 2 {
  %2 = alloca i1, align 1
  %3 = alloca ptr, align 8
  store ptr %0, ptr %3, align 8
  %4 = load ptr, ptr %3, align 8
  %5 = call noundef zeroext i1 @_ZNK12ThreadShadow21has_pending_exceptionEv(ptr noundef nonnull align 8 dereferenceable(28) %4)
  br i1 %5, label %6, label %13

6:                                                ; preds = %1
  %7 = load ptr, ptr @tty, align 8
  call void (ptr, ptr, ...) @_ZN12outputStream8print_crEPKcz(ptr noundef nonnull align 8 dereferenceable(56) %7, ptr noundef @.str.4)
  %8 = load ptr, ptr %3, align 8
  %9 = call noundef ptr @_ZNK12ThreadShadow17pending_exceptionEv(ptr noundef nonnull align 8 dereferenceable(28) %8)
  %10 = load ptr, ptr @tty, align 8
  call void @_ZN19java_lang_Throwable5printEP7oopDescP12outputStream(ptr noundef %9, ptr noundef %10)
  %11 = load ptr, ptr @tty, align 8
  call void @_ZN12outputStream2crEv(ptr noundef nonnull align 8 dereferenceable(56) %11)
  %12 = load ptr, ptr %3, align 8
  call void @_ZN12ThreadShadow23clear_pending_exceptionEv(ptr noundef nonnull align 8 dereferenceable(28) %12)
  store i1 true, ptr %2, align 1
  br label %14

13:                                               ; preds = %1
  store i1 false, ptr %2, align 1
  br label %14

14:                                               ; preds = %13, %6
  %15 = load i1, ptr %2, align 1
  ret i1 %15
}

; Function Attrs: mustprogress nounwind uwtable
define linkonce_odr hidden noundef ptr @_ZN13ExceptionMark6threadEv(ptr noundef nonnull align 8 dereferenceable(8) %0) #1 comdat align 2 {
  %2 = alloca ptr, align 8
  store ptr %0, ptr %2, align 8
  %3 = load ptr, ptr %2, align 8
  %4 = getelementptr inbounds %class.ExceptionMark, ptr %3, i32 0, i32 0
  %5 = load ptr, ptr %4, align 8
  ret ptr %5
}

; Function Attrs: mustprogress nounwind uwtable
define hidden void @_ZN14AttachListener4initEv() #1 align 2 {
  %1 = alloca i64, align 8
  %2 = alloca i8, align 1
  %3 = alloca i64, align 8
  %4 = alloca %class.ExceptionMark, align 8
  %5 = alloca ptr, align 8
  %6 = alloca ptr, align 8
  %7 = alloca %class.Handle, align 8
  %8 = alloca i32, align 4
  %9 = alloca ptr, align 8
  %10 = alloca %class.Handle, align 8
  call void @_ZN13ExceptionMarkC1Ev(ptr noundef nonnull align 8 dereferenceable(8) %4)
  %11 = call noundef ptr @_ZN13ExceptionMark6threadEv(ptr noundef nonnull align 8 dereferenceable(8) %4)
  store ptr %11, ptr %5, align 8
  store ptr @.str.5, ptr %6, align 8
  %12 = load ptr, ptr %6, align 8
  %13 = load ptr, ptr %5, align 8
  %14 = call ptr @_ZN10JavaThread27create_system_thread_objectEPKcPS_(ptr noundef %12, ptr noundef %13)
  %15 = getelementptr inbounds %class.Handle, ptr %7, i32 0, i32 0
  store ptr %14, ptr %15, align 8
  %16 = load ptr, ptr %5, align 8
  %17 = call noundef zeroext i1 @_ZN14AttachListener14has_init_errorEP10JavaThread(ptr noundef %16)
  br i1 %17, label %18, label %19

18:                                               ; preds = %0
  call void @_ZN14AttachListener9set_stateE19AttachListenerState(i32 noundef 0)
  store i32 1, ptr %8, align 4
  br label %29

19:                                               ; preds = %0
  store i64 1800, ptr %3, align 8
  %20 = load i64, ptr %3, align 8
  store i64 %20, ptr %1, align 8
  store i8 2, ptr %2, align 1
  %21 = load i64, ptr %1, align 8
  %22 = load i8, ptr %2, align 1
  %23 = call noundef ptr @_Z12AllocateHeapm8MEMFLAGSN17AllocFailStrategy13AllocFailEnumE(i64 noundef %21, i8 noundef zeroext %22, i32 noundef 0) #9
  call void @_ZN20AttachListenerThreadC2Ev(ptr noundef nonnull align 8 dereferenceable(1800) %23)
  store ptr %23, ptr %9, align 8
  %24 = load ptr, ptr %9, align 8
  call void @_ZN10JavaThread27vm_exit_on_osthread_failureEPS_(ptr noundef %24)
  %25 = load ptr, ptr %5, align 8
  %26 = load ptr, ptr %9, align 8
  call void @llvm.memcpy.p0.p0.i64(ptr align 8 %10, ptr align 8 %7, i64 8, i1 false)
  %27 = getelementptr inbounds %class.Handle, ptr %10, i32 0, i32 0
  %28 = load ptr, ptr %27, align 8
  call void @_ZN10JavaThread21start_internal_daemonEPS_S0_6Handle14ThreadPriority(ptr noundef %25, ptr noundef %26, ptr %28, i32 noundef -1)
  store i32 0, ptr %8, align 4
  br label %29

29:                                               ; preds = %19, %18
  call void @_ZN13ExceptionMarkD1Ev(ptr noundef nonnull align 8 dereferenceable(8) %4) #9
  %30 = load i32, ptr %8, align 4
  switch i32 %30, label %32 [
    i32 0, label %31
    i32 1, label %31
  ]

31:                                               ; preds = %29, %29
  ret void

32:                                               ; preds = %29
  unreachable
}