; Function Attrs: mustprogress nounwind uwtable
define hidden void @_ZN14AttachListener4initEv() local_unnamed_addr #0 align 2 {
  %1 = alloca %class.ExceptionMark, align 8
  call void @_ZN13ExceptionMarkC1Ev(ptr noundef nonnull align 8 dereferenceable(8) %1) #8
  %2 = load ptr, ptr %1, align 8
  %3 = call ptr @_ZN10JavaThread27create_system_thread_objectEPKcPS_(ptr noundef nonnull @.str.5, ptr noundef %2) #8
  %4 = getelementptr inbounds i8, ptr %2, i64 8
  %5 = load ptr, ptr %4, align 8
  %.not = icmp eq ptr %5, null
  br i1 %.not, label %_ZN14AttachListener14has_init_errorEP10JavaThread.exit, label %6

6:                                                ; preds = %0
  %7 = load ptr, ptr @tty, align 8
  call void (ptr, ptr, ...) @_ZN12outputStream8print_crEPKcz(ptr noundef nonnull align 8 dereferenceable(56) %7, ptr noundef nonnull @.str.4) #8
  %8 = load ptr, ptr %4, align 8
  %9 = load ptr, ptr @tty, align 8
  call void @_ZN19java_lang_Throwable5printEP7oopDescP12outputStream(ptr noundef %8, ptr noundef %9) #8
  %10 = load ptr, ptr @tty, align 8
  call void @_ZN12outputStream2crEv(ptr noundef nonnull align 8 dereferenceable(56) %10) #8
  call void @_ZN12ThreadShadow23clear_pending_exceptionEv(ptr noundef nonnull align 8 dereferenceable(28) %2) #8
  store volatile i32 0, ptr @_ZN14AttachListener6_stateE, align 4
  br label %12

_ZN14AttachListener14has_init_errorEP10JavaThread.exit: ; preds = %0
  %11 = call noundef ptr @_Z12AllocateHeapm8MEMFLAGSN17AllocFailStrategy13AllocFailEnumE(i64 noundef 1800, i8 noundef zeroext 2, i32 noundef 0) #8
  call void @_ZN10JavaThreadC2EPFvPS_S0_Em8MEMFLAGS(ptr noundef nonnull align 8 dereferenceable(1800) %11, ptr noundef nonnull @_ZN20AttachListenerThread12thread_entryEP10JavaThreadS1_, i64 noundef 0, i8 noundef zeroext 2) #8
  store ptr getelementptr inbounds inrange(-16, 224) (i8, ptr @_ZTV20AttachListenerThread, i64 16), ptr %11, align 8
  call void @_ZN10JavaThread27vm_exit_on_osthread_failureEPS_(ptr noundef nonnull %11) #8
  call void @_ZN10JavaThread21start_internal_daemonEPS_S0_6Handle14ThreadPriority(ptr noundef nonnull %2, ptr noundef nonnull %11, ptr %3, i32 noundef -1) #8
  br label %12

12:                                               ; preds = %_ZN14AttachListener14has_init_errorEP10JavaThread.exit, %6
  call void @_ZN13ExceptionMarkD1Ev(ptr noundef nonnull align 8 dereferenceable(8) %1) #8
  ret void
}